; Function Attrs: nounwind uwtable
define hidden ptr @_cmsStageNormalizeFromXyzFloat(ptr noundef %0) local_unnamed_addr #0 {
  %2 = tail call ptr @cmsStageAllocMatrix(ptr noundef %0, i32 noundef 3, i32 noundef 3, ptr noundef nonnull @_cmsStageNormalizeFromXyzFloat.a1, ptr noundef null)
  %3 = icmp eq ptr %2, null
  br i1 %3, label %6, label %4

4:                                                ; preds = %1
  %5 = getelementptr inbounds i8, ptr %2, i64 12
  store i32 1681029152, ptr %5, align 4
  br label %6

6:                                                ; preds = %1, %4
  ret ptr %2
}